target datalayout = "e-m:e-p270:32:32-p271:32:32-p272:64:64-i64:64-i128:128-f80:128-n8:16:32:64-S128"
target triple = "x86_64-pc-linux-gnu"

; Function Attrs: mustprogress nounwind uwtable
define hidden noundef zeroext i1 @_ZNK5osgeo4proj20GTXVerticalShiftGrid8isNodataEfd(ptr noundef nonnull align 8 dereferenceable(192) %0, float noundef %1, double noundef %2) unnamed_addr #0 align 2 {
  %4 = alloca ptr, align 8
  %5 = alloca float, align 4
  %6 = alloca double, align 8
  store ptr %0, ptr %4, align 8, !tbaa !66
  store float %1, ptr %5, align 4, !tbaa !52
  store double %2, ptr %6, align 8, !tbaa !39
  %7 = load float, ptr %5, align 4, !tbaa !52
  %8 = fpext float %7 to double
  %9 = load double, ptr %6, align 8, !tbaa !39
  %10 = fmul double %8, %9
  %11 = fcmp ogt double %10, 1.000000e+03
  br i1 %11, label %21, label %12

12:                                               ; preds = %3
  %13 = load float, ptr %5, align 4, !tbaa !52
  %14 = fpext float %13 to double
  %15 = load double, ptr %6, align 8, !tbaa !39
  %16 = fmul double %14, %15
  %17 = fcmp olt double %16, -1.000000e+03
  br i1 %17, label %21, label %18

18:                                               ; preds = %12
  %19 = load float, ptr %5, align 4, !tbaa !52
  %20 = fcmp oeq float %19, 0xC05638E220000000
  br label %21

21:                                               ; preds = %18, %12, %3
  %22 = phi i1 [ true, %12 ], [ true, %3 ], [ %20, %18 ]
  ret i1 %22
}