; Function Attrs: mustprogress nofree norecurse nosync nounwind willreturn memory(none) uwtable
define hidden noundef zeroext i1 @_ZNK5osgeo4proj20GTXVerticalShiftGrid8isNodataEfd(ptr nonnull readnone align 8 captures(none) %0, float noundef %1, double noundef %2) unnamed_addr #18 align 2 {
  %4 = fpext float %1 to double
  %5 = fmul double %2, %4
  %6 = tail call double @llvm.fabs.f64(double %5)
  %or.cond = fcmp ogt double %6, 1.000000e+03
  %7 = fcmp oeq float %1, 0xC05638E220000000
  %spec.select = or i1 %7, %or.cond
  ret i1 %spec.select
}